target datalayout = "e-m:e-p270:32:32-p271:32:32-p272:64:64-i64:64-i128:128-f80:128-n8:16:32:64-S128"
target triple = "x86_64-pc-linux-gnu"

%struct.SurfaceDataBounds = type { i32, i32, i32, i32 }
%struct.RegionData = type { %struct.SurfaceDataBounds, i32, ptr, i32, i32, ptr }
%struct._X11SDOps = type { %struct._SurfaceDataOps, ptr, ptr, i8, i8, ptr, i64, ptr, ptr, i32, i32, ptr, ptr, i64, i32, i8, i32, i32, i64, %struct.ShmPixmapData }
%struct._SurfaceDataOps = type { ptr, ptr, ptr, ptr, ptr, ptr, ptr }
%struct.ShmPixmapData = type { ptr, i32, i8, i64, i8, i64, i64, i32, i32, i32, i32 }

@awt_display = external global ptr, align 8

; Function Attrs: nounwind uwtable
define void @Java_sun_java2d_x11_X11PMBlitLoops_nativeBlit(ptr noundef %0, ptr noundef %1, i64 noundef %2, i64 noundef %3, i64 noundef %4, ptr noundef %5, i32 noundef %6, i32 noundef %7, i32 noundef %8, i32 noundef %9, i32 noundef %10, i32 noundef %11) #0 {
  %13 = alloca ptr, align 8
  %14 = alloca ptr, align 8
  %15 = alloca i64, align 8
  %16 = alloca i64, align 8
  %17 = alloca i64, align 8
  %18 = alloca ptr, align 8
  %19 = alloca i32, align 4
  %20 = alloca i32, align 4
  %21 = alloca i32, align 4
  %22 = alloca i32, align 4
  %23 = alloca i32, align 4
  %24 = alloca i32, align 4
  %25 = alloca ptr, align 8
  %26 = alloca ptr, align 8
  %27 = alloca %struct.SurfaceDataBounds, align 4
  %28 = alloca %struct.SurfaceDataBounds, align 4
  %29 = alloca %struct.RegionData, align 8
  %30 = alloca ptr, align 8
  store ptr %0, ptr %13, align 8
  store ptr %1, ptr %14, align 8
  store i64 %2, ptr %15, align 8
  store i64 %3, ptr %16, align 8
  store i64 %4, ptr %17, align 8
  store ptr %5, ptr %18, align 8
  store i32 %6, ptr %19, align 4
  store i32 %7, ptr %20, align 4
  store i32 %8, ptr %21, align 4
  store i32 %9, ptr %22, align 4
  store i32 %10, ptr %23, align 4
  store i32 %11, ptr %24, align 4
  %31 = load i32, ptr %23, align 4
  %32 = icmp sle i32 %31, 0
  br i1 %32, label %36, label %33

33:                                               ; preds = %12
  %34 = load i32, ptr %24, align 4
  %35 = icmp sle i32 %34, 0
  br i1 %35, label %36, label %37

36:                                               ; preds = %33, %12
  br label %217

37:                                               ; preds = %33
  %38 = load i64, ptr %15, align 8
  %39 = inttoptr i64 %38 to ptr
  store ptr %39, ptr %25, align 8
  %40 = load ptr, ptr %25, align 8
  %41 = icmp eq ptr %40, null
  br i1 %41, label %42, label %43

42:                                               ; preds = %37
  br label %217

43:                                               ; preds = %37
  %44 = load i64, ptr %16, align 8
  %45 = inttoptr i64 %44 to ptr
  store ptr %45, ptr %26, align 8
  %46 = load ptr, ptr %26, align 8
  %47 = icmp eq ptr %46, null
  br i1 %47, label %48, label %49

48:                                               ; preds = %43
  br label %217

49:                                               ; preds = %43
  %50 = load ptr, ptr %13, align 8
  %51 = load ptr, ptr %18, align 8
  %52 = call i32 @Region_GetInfo(ptr noundef %50, ptr noundef %51, ptr noundef %29)
  %53 = icmp ne i32 %52, 0
  br i1 %53, label %54, label %55

54:                                               ; preds = %49
  br label %217

55:                                               ; preds = %49
  %56 = load i64, ptr %17, align 8
  %57 = inttoptr i64 %56 to ptr
  store ptr %57, ptr %30, align 8
  %58 = load ptr, ptr %30, align 8
  %59 = icmp eq ptr %58, null
  br i1 %59, label %60, label %61

60:                                               ; preds = %55
  br label %217

61:                                               ; preds = %55
  %62 = load ptr, ptr %25, align 8
  %63 = getelementptr inbounds %struct._X11SDOps, ptr %62, i32 0, i32 4
  %64 = load i8, ptr %63, align 1
  %65 = icmp ne i8 %64, 0
  br i1 %65, label %66, label %68

66:                                               ; preds = %61
  %67 = load ptr, ptr %25, align 8
  call void @X11SD_UnPuntPixmap(ptr noundef %67)
  br label %68

68:                                               ; preds = %66, %61
  %69 = load i32, ptr %19, align 4
  %70 = getelementptr inbounds %struct.SurfaceDataBounds, ptr %28, i32 0, i32 0
  store i32 %69, ptr %70, align 4
  %71 = load i32, ptr %20, align 4
  %72 = getelementptr inbounds %struct.SurfaceDataBounds, ptr %28, i32 0, i32 1
  store i32 %71, ptr %72, align 4
  %73 = load i32, ptr %19, align 4
  %74 = load i32, ptr %23, align 4
  %75 = add nsw i32 %73, %74
  %76 = getelementptr inbounds %struct.SurfaceDataBounds, ptr %28, i32 0, i32 2
  store i32 %75, ptr %76, align 4
  %77 = load i32, ptr %20, align 4
  %78 = load i32, ptr %24, align 4
  %79 = add nsw i32 %77, %78
  %80 = getelementptr inbounds %struct.SurfaceDataBounds, ptr %28, i32 0, i32 3
  store i32 %79, ptr %80, align 4
  %81 = load ptr, ptr %25, align 8
  %82 = getelementptr inbounds %struct._X11SDOps, ptr %81, i32 0, i32 16
  %83 = load i32, ptr %82, align 8
  %84 = load ptr, ptr %25, align 8
  %85 = getelementptr inbounds %struct._X11SDOps, ptr %84, i32 0, i32 17
  %86 = load i32, ptr %85, align 4
  call void @SurfaceData_IntersectBoundsXYXY(ptr noundef %28, i32 noundef 0, i32 noundef 0, i32 noundef %83, i32 noundef %86)
  %87 = load i32, ptr %21, align 4
  %88 = getelementptr inbounds %struct.SurfaceDataBounds, ptr %27, i32 0, i32 0
  store i32 %87, ptr %88, align 4
  %89 = load i32, ptr %22, align 4
  %90 = getelementptr inbounds %struct.SurfaceDataBounds, ptr %27, i32 0, i32 1
  store i32 %89, ptr %90, align 4
  %91 = load i32, ptr %21, align 4
  %92 = load i32, ptr %23, align 4
  %93 = add nsw i32 %91, %92
  %94 = getelementptr inbounds %struct.SurfaceDataBounds, ptr %27, i32 0, i32 2
  store i32 %93, ptr %94, align 4
  %95 = load i32, ptr %22, align 4
  %96 = load i32, ptr %24, align 4
  %97 = add nsw i32 %95, %96
  %98 = getelementptr inbounds %struct.SurfaceDataBounds, ptr %27, i32 0, i32 3
  store i32 %97, ptr %98, align 4
  %99 = load i32, ptr %21, align 4
  %100 = load i32, ptr %19, align 4
  %101 = sub nsw i32 %99, %100
  %102 = load i32, ptr %22, align 4
  %103 = load i32, ptr %20, align 4
  %104 = sub nsw i32 %102, %103
  call void @SurfaceData_IntersectBlitBounds(ptr noundef %28, ptr noundef %27, i32 noundef %101, i32 noundef %104)
  %105 = getelementptr inbounds %struct.SurfaceDataBounds, ptr %28, i32 0, i32 0
  %106 = load i32, ptr %105, align 4
  store i32 %106, ptr %19, align 4
  %107 = getelementptr inbounds %struct.SurfaceDataBounds, ptr %28, i32 0, i32 1
  %108 = load i32, ptr %107, align 4
  store i32 %108, ptr %20, align 4
  %109 = getelementptr inbounds %struct.SurfaceDataBounds, ptr %27, i32 0, i32 0
  %110 = load i32, ptr %109, align 4
  store i32 %110, ptr %21, align 4
  %111 = getelementptr inbounds %struct.SurfaceDataBounds, ptr %27, i32 0, i32 1
  %112 = load i32, ptr %111, align 4
  store i32 %112, ptr %22, align 4
  %113 = load ptr, ptr %25, align 8
  %114 = getelementptr inbounds %struct._X11SDOps, ptr %113, i32 0, i32 13
  %115 = load i64, ptr %114, align 8
  %116 = icmp ne i64 %115, 0
  br i1 %116, label %117, label %133

117:                                              ; preds = %68
  %118 = load ptr, ptr @awt_display, align 8
  %119 = load ptr, ptr %30, align 8
  %120 = load i32, ptr %21, align 4
  %121 = load i32, ptr %19, align 4
  %122 = sub nsw i32 %120, %121
  %123 = load i32, ptr %22, align 4
  %124 = load i32, ptr %20, align 4
  %125 = sub nsw i32 %123, %124
  %126 = call i32 @XSetClipOrigin(ptr noundef %118, ptr noundef %119, i32 noundef %122, i32 noundef %125)
  %127 = load ptr, ptr @awt_display, align 8
  %128 = load ptr, ptr %30, align 8
  %129 = load ptr, ptr %25, align 8
  %130 = getelementptr inbounds %struct._X11SDOps, ptr %129, i32 0, i32 13
  %131 = load i64, ptr %130, align 8
  %132 = call i32 @XSetClipMask(ptr noundef %127, ptr noundef %128, i64 noundef %131)
  br label %133

133:                                              ; preds = %117, %68
  %134 = getelementptr inbounds %struct.RegionData, ptr %29, i32 0, i32 0
  call void @SurfaceData_IntersectBounds(ptr noundef %134, ptr noundef %27)
  %135 = getelementptr inbounds %struct.RegionData, ptr %29, i32 0, i32 0
  %136 = getelementptr inbounds %struct.SurfaceDataBounds, ptr %135, i32 0, i32 0
  %137 = load i32, ptr %136, align 8
  %138 = getelementptr inbounds %struct.RegionData, ptr %29, i32 0, i32 0
  %139 = getelementptr inbounds %struct.SurfaceDataBounds, ptr %138, i32 0, i32 2
  %140 = load i32, ptr %139, align 8
  %141 = icmp sge i32 %137, %140
  br i1 %141, label %195, label %142

142:                                              ; preds = %133
  %143 = getelementptr inbounds %struct.RegionData, ptr %29, i32 0, i32 0
  %144 = getelementptr inbounds %struct.SurfaceDataBounds, ptr %143, i32 0, i32 1
  %145 = load i32, ptr %144, align 4
  %146 = getelementptr inbounds %struct.RegionData, ptr %29, i32 0, i32 0
  %147 = getelementptr inbounds %struct.SurfaceDataBounds, ptr %146, i32 0, i32 3
  %148 = load i32, ptr %147, align 4
  %149 = icmp sge i32 %145, %148
  br i1 %149, label %195, label %150

150:                                              ; preds = %142
  %151 = load ptr, ptr %13, align 8
  call void @Region_StartIteration(ptr noundef %151, ptr noundef %29)
  %152 = load i32, ptr %21, align 4
  %153 = load i32, ptr %19, align 4
  %154 = sub nsw i32 %153, %152
  store i32 %154, ptr %19, align 4
  %155 = load i32, ptr %22, align 4
  %156 = load i32, ptr %20, align 4
  %157 = sub nsw i32 %156, %155
  store i32 %157, ptr %20, align 4
  br label %158

158:                                              ; preds = %161, %150
  %159 = call i32 @Region_NextIteration(ptr noundef %29, ptr noundef %27)
  %160 = icmp ne i32 %159, 0
  br i1 %160, label %161, label %193

161:                                              ; preds = %158
  %162 = load ptr, ptr @awt_display, align 8
  %163 = load ptr, ptr %25, align 8
  %164 = getelementptr inbounds %struct._X11SDOps, ptr %163, i32 0, i32 6
  %165 = load i64, ptr %164, align 8
  %166 = load ptr, ptr %26, align 8
  %167 = getelementptr inbounds %struct._X11SDOps, ptr %166, i32 0, i32 6
  %168 = load i64, ptr %167, align 8
  %169 = load ptr, ptr %30, align 8
  %170 = load i32, ptr %19, align 4
  %171 = getelementptr inbounds %struct.SurfaceDataBounds, ptr %27, i32 0, i32 0
  %172 = load i32, ptr %171, align 4
  %173 = add nsw i32 %170, %172
  %174 = load i32, ptr %20, align 4
  %175 = getelementptr inbounds %struct.SurfaceDataBounds, ptr %27, i32 0, i32 1
  %176 = load i32, ptr %175, align 4
  %177 = add nsw i32 %174, %176
  %178 = getelementptr inbounds %struct.SurfaceDataBounds, ptr %27, i32 0, i32 2
  %179 = load i32, ptr %178, align 4
  %180 = getelementptr inbounds %struct.SurfaceDataBounds, ptr %27, i32 0, i32 0
  %181 = load i32, ptr %180, align 4
  %182 = sub nsw i32 %179, %181
  %183 = getelementptr inbounds %struct.SurfaceDataBounds, ptr %27, i32 0, i32 3
  %184 = load i32, ptr %183, align 4
  %185 = getelementptr inbounds %struct.SurfaceDataBounds, ptr %27, i32 0, i32 1
  %186 = load i32, ptr %185, align 4
  %187 = sub nsw i32 %184, %186
  %188 = getelementptr inbounds %struct.SurfaceDataBounds, ptr %27, i32 0, i32 0
  %189 = load i32, ptr %188, align 4
  %190 = getelementptr inbounds %struct.SurfaceDataBounds, ptr %27, i32 0, i32 1
  %191 = load i32, ptr %190, align 4
  %192 = call i32 @XCopyArea(ptr noundef %162, i64 noundef %165, i64 noundef %168, ptr noundef %169, i32 noundef %173, i32 noundef %177, i32 noundef %182, i32 noundef %187, i32 noundef %189, i32 noundef %191)
  br label %158, !llvm.loop !6

193:                                              ; preds = %158
  %194 = load ptr, ptr %13, align 8
  call void @Region_EndIteration(ptr noundef %194, ptr noundef %29)
  br label %195

195:                                              ; preds = %193, %142, %133
  %196 = load ptr, ptr %25, align 8
  %197 = getelementptr inbounds %struct._X11SDOps, ptr %196, i32 0, i32 13
  %198 = load i64, ptr %197, align 8
  %199 = icmp ne i64 %198, 0
  br i1 %199, label %200, label %204

200:                                              ; preds = %195
  %201 = load ptr, ptr @awt_display, align 8
  %202 = load ptr, ptr %30, align 8
  %203 = call i32 @XSetClipMask(ptr noundef %201, ptr noundef %202, i64 noundef 0)
  br label %204

204:                                              ; preds = %200, %195
  %205 = load ptr, ptr %25, align 8
  %206 = getelementptr inbounds %struct._X11SDOps, ptr %205, i32 0, i32 19
  %207 = getelementptr inbounds %struct.ShmPixmapData, ptr %206, i32 0, i32 4
  %208 = load i8, ptr %207, align 8
  %209 = icmp ne i8 %208, 0
  br i1 %209, label %210, label %214

210:                                              ; preds = %204
  %211 = load ptr, ptr %25, align 8
  %212 = getelementptr inbounds %struct._X11SDOps, ptr %211, i32 0, i32 19
  %213 = getelementptr inbounds %struct.ShmPixmapData, ptr %212, i32 0, i32 2
  store i8 1, ptr %213, align 4
  br label %214

214:                                              ; preds = %210, %204
  %215 = load ptr, ptr %13, align 8
  %216 = load ptr, ptr %26, align 8
  call void @X11SD_DirectRenderNotify(ptr noundef %215, ptr noundef %216)
  br label %217

217:                                              ; preds = %214, %60, %54, %48, %42, %36
  ret void
}