; Function Attrs: nounwind uwtable
define void @Java_sun_java2d_x11_X11PMBlitLoops_nativeBlit(ptr noundef %0, ptr nocapture noundef readnone %1, i64 noundef %2, i64 noundef %3, i64 noundef %4, ptr noundef %5, i32 noundef %6, i32 noundef %7, i32 noundef %8, i32 noundef %9, i32 noundef %10, i32 noundef %11) local_unnamed_addr #0 {
  %13 = alloca %struct.SurfaceDataBounds, align 4
  %14 = alloca %struct.SurfaceDataBounds, align 4
  %15 = alloca %struct.RegionData, align 8
  %16 = icmp slt i32 %10, 1
  %17 = icmp slt i32 %11, 1
  %or.cond = or i1 %16, %17
  br i1 %or.cond, label %104, label %18

18:                                               ; preds = %12
  %19 = inttoptr i64 %2 to ptr
  %20 = icmp eq i64 %2, 0
  br i1 %20, label %104, label %21

21:                                               ; preds = %18
  %22 = inttoptr i64 %3 to ptr
  %23 = icmp eq i64 %3, 0
  br i1 %23, label %104, label %24

24:                                               ; preds = %21
  %25 = call i32 @Region_GetInfo(ptr noundef %0, ptr noundef %5, ptr noundef nonnull %15) #4
  %.not = icmp eq i32 %25, 0
  br i1 %.not, label %26, label %104

26:                                               ; preds = %24
  %27 = inttoptr i64 %4 to ptr
  %28 = icmp eq i64 %4, 0
  br i1 %28, label %104, label %29

29:                                               ; preds = %26
  %30 = getelementptr inbounds i8, ptr %19, i64 73
  %31 = load i8, ptr %30, align 1
  %.not59 = icmp eq i8 %31, 0
  br i1 %.not59, label %33, label %32

32:                                               ; preds = %29
  call void @X11SD_UnPuntPixmap(ptr noundef nonnull %19) #4
  br label %33

33:                                               ; preds = %32, %29
  store i32 %6, ptr %14, align 4
  %34 = getelementptr inbounds i8, ptr %14, i64 4
  store i32 %7, ptr %34, align 4
  %35 = add nsw i32 %10, %6
  %36 = getelementptr inbounds i8, ptr %14, i64 8
  store i32 %35, ptr %36, align 4
  %37 = add nsw i32 %11, %7
  %38 = getelementptr inbounds i8, ptr %14, i64 12
  store i32 %37, ptr %38, align 4
  %39 = getelementptr inbounds i8, ptr %19, i64 152
  %40 = load i32, ptr %39, align 8
  %41 = getelementptr inbounds i8, ptr %19, i64 156
  %42 = load i32, ptr %41, align 4
  call void @SurfaceData_IntersectBoundsXYXY(ptr noundef nonnull %14, i32 noundef 0, i32 noundef 0, i32 noundef %40, i32 noundef %42) #4
  store i32 %8, ptr %13, align 4
  %43 = getelementptr inbounds i8, ptr %13, i64 4
  store i32 %9, ptr %43, align 4
  %44 = add nsw i32 %10, %8
  %45 = getelementptr inbounds i8, ptr %13, i64 8
  store i32 %44, ptr %45, align 4
  %46 = add nsw i32 %11, %9
  %47 = getelementptr inbounds i8, ptr %13, i64 12
  store i32 %46, ptr %47, align 4
  %48 = sub nsw i32 %8, %6
  %49 = sub nsw i32 %9, %7
  call void @SurfaceData_IntersectBlitBounds(ptr noundef nonnull %14, ptr noundef nonnull %13, i32 noundef %48, i32 noundef %49) #4
  %50 = load i32, ptr %14, align 4
  %51 = load i32, ptr %34, align 4
  %52 = load i32, ptr %13, align 4
  %53 = load i32, ptr %43, align 4
  %54 = getelementptr inbounds i8, ptr %19, i64 136
  %55 = load i64, ptr %54, align 8
  %.not60 = icmp eq i64 %55, 0
  br i1 %.not60, label %64, label %56

56:                                               ; preds = %33
  %57 = load ptr, ptr @awt_display, align 8
  %58 = sub nsw i32 %52, %50
  %59 = sub nsw i32 %53, %51
  %60 = call i32 @XSetClipOrigin(ptr noundef %57, ptr noundef nonnull %27, i32 noundef %58, i32 noundef %59) #4
  %61 = load ptr, ptr @awt_display, align 8
  %62 = load i64, ptr %54, align 8
  %63 = call i32 @XSetClipMask(ptr noundef %61, ptr noundef nonnull %27, i64 noundef %62) #4
  br label %64

64:                                               ; preds = %56, %33
  call void @SurfaceData_IntersectBounds(ptr noundef nonnull %15, ptr noundef nonnull %13) #4
  %65 = load i32, ptr %15, align 8
  %66 = getelementptr inbounds i8, ptr %15, i64 8
  %67 = load i32, ptr %66, align 8
  %.not61 = icmp slt i32 %65, %67
  br i1 %.not61, label %68, label %93

68:                                               ; preds = %64
  %69 = getelementptr inbounds i8, ptr %15, i64 4
  %70 = load i32, ptr %69, align 4
  %71 = getelementptr inbounds i8, ptr %15, i64 12
  %72 = load i32, ptr %71, align 4
  %.not62 = icmp slt i32 %70, %72
  br i1 %.not62, label %73, label %93

73:                                               ; preds = %68
  call void @Region_StartIteration(ptr noundef %0, ptr noundef nonnull %15) #4
  %74 = sub i32 %50, %52
  %75 = sub i32 %51, %53
  %76 = call i32 @Region_NextIteration(ptr noundef nonnull %15, ptr noundef nonnull %13) #4
  %.not6367 = icmp eq i32 %76, 0
  br i1 %.not6367, label %._crit_edge, label %.lr.ph

.lr.ph:                                           ; preds = %73
  %77 = getelementptr inbounds i8, ptr %19, i64 88
  %78 = getelementptr inbounds i8, ptr %22, i64 88
  br label %79

79:                                               ; preds = %.lr.ph, %79
  %80 = load ptr, ptr @awt_display, align 8
  %81 = load i64, ptr %77, align 8
  %82 = load i64, ptr %78, align 8
  %83 = load i32, ptr %13, align 4
  %84 = add nsw i32 %74, %83
  %85 = load i32, ptr %43, align 4
  %86 = add nsw i32 %75, %85
  %87 = load i32, ptr %45, align 4
  %88 = sub nsw i32 %87, %83
  %89 = load i32, ptr %47, align 4
  %90 = sub nsw i32 %89, %85
  %91 = call i32 @XCopyArea(ptr noundef %80, i64 noundef %81, i64 noundef %82, ptr noundef nonnull %27, i32 noundef %84, i32 noundef %86, i32 noundef %88, i32 noundef %90, i32 noundef %83, i32 noundef %85) #4
  %92 = call i32 @Region_NextIteration(ptr noundef nonnull %15, ptr noundef nonnull %13) #4
  %.not63 = icmp eq i32 %92, 0
  br i1 %.not63, label %._crit_edge, label %79, !llvm.loop !6

._crit_edge:                                      ; preds = %79, %73
  call void @Region_EndIteration(ptr noundef %0, ptr noundef nonnull %15) #4
  br label %93

93:                                               ; preds = %._crit_edge, %68, %64
  %94 = load i64, ptr %54, align 8
  %.not64 = icmp eq i64 %94, 0
  br i1 %.not64, label %98, label %95

95:                                               ; preds = %93
  %96 = load ptr, ptr @awt_display, align 8
  %97 = call i32 @XSetClipMask(ptr noundef %96, ptr noundef nonnull %27, i64 noundef 0) #4
  br label %98

98:                                               ; preds = %95, %93
  %99 = getelementptr inbounds i8, ptr %19, i64 192
  %100 = load i8, ptr %99, align 8
  %.not65 = icmp eq i8 %100, 0
  br i1 %.not65, label %103, label %101

101:                                              ; preds = %98
  %102 = getelementptr inbounds i8, ptr %19, i64 180
  store i8 1, ptr %102, align 4
  br label %103

103:                                              ; preds = %101, %98
  call void @X11SD_DirectRenderNotify(ptr noundef %0, ptr noundef nonnull %22) #4
  br label %104

104:                                              ; preds = %26, %24, %21, %18, %12, %103
  ret void
}